; Function Attrs: mustprogress uwtable
define void @_ZN32pxrInternal_v0_24__pxrReserved__22Vt_DefaultValueFactoryINS_10GfMatrix4dEE6InvokeEv(ptr dead_on_unwind noalias nocapture writable writeonly sret(%"struct.pxrInternal_v0_24__pxrReserved__::Vt_DefaultValueHolder") align 8 %0) local_unnamed_addr #0 align 2 personality ptr @__gxx_personality_v0 {
  %2 = alloca %"class.pxrInternal_v0_24__pxrReserved__::GfMatrix4d", align 8
  call void @_ZN32pxrInternal_v0_24__pxrReserved__6VtZeroINS_10GfMatrix4dEEET_v(ptr dead_on_unwind nonnull writable sret(%"class.pxrInternal_v0_24__pxrReserved__::GfMatrix4d") align 8 %2)
  call void @llvm.experimental.noalias.scope.decl(metadata !159)
  %3 = call noalias noundef nonnull dereferenceable(128) ptr @_Znwm(i64 noundef 128) #23, !noalias !162
  call void @llvm.memcpy.p0.p0.i64(ptr noundef nonnull align 16 dereferenceable(128) %3, ptr noundef nonnull align 8 dereferenceable(128) %2, i64 128, i1 false), !noalias !162
  store ptr %3, ptr %0, align 8, !alias.scope !159
  %4 = getelementptr inbounds nuw i8, ptr %0, i64 8
  store ptr @_ZN32pxrInternal_v0_24__pxrReserved__14TfAnyUniquePtr7_DeleteINS_10GfMatrix4dEEEvPKv, ptr %4, align 8, !alias.scope !159
  %5 = getelementptr inbounds nuw i8, ptr %0, i64 16
  store ptr @_ZTIN32pxrInternal_v0_24__pxrReserved__10GfMatrix4dE, ptr %5, align 8, !alias.scope !159
  ret void
}